target datalayout = "e-m:e-p270:32:32-p271:32:32-p272:64:64-i64:64-i128:128-f80:128-n8:16:32:64-S128"
target triple = "x86_64-unknown-linux-gnu"

%"class.EA::UnitTest::TestCollection" = type { ptr, %"class.eastl::vector" }
%"class.eastl::vector" = type { %"struct.eastl::VectorBase" }
%"struct.eastl::VectorBase" = type { ptr, ptr, %"class.eastl::compressed_pair.0" }
%"class.eastl::compressed_pair.0" = type { %"class.eastl::compressed_pair_imp.1" }
%"class.eastl::compressed_pair_imp.1" = type { ptr }
%"class.EA::UnitTest::Test" = type { ptr, %"class.eastl::basic_string", ptr, i64, i64, ptr, i8, i64 }
%"class.eastl::basic_string" = type { %"class.eastl::compressed_pair" }
%"class.eastl::compressed_pair" = type { %"class.eastl::compressed_pair_imp" }
%"class.eastl::compressed_pair_imp" = type { %"struct.eastl::basic_string<char>::Layout" }
%"struct.eastl::basic_string<char>::Layout" = type { %union.anon }
%union.anon = type { %"struct.eastl::basic_string<char>::HeapLayout" }
%"struct.eastl::basic_string<char>::HeapLayout" = type { ptr, i64, i64 }
%"class.EA::UnitTest::TestSuite" = type { %"class.EA::UnitTest::Test", %"class.EA::UnitTest::TestCollection", i32, %"class.eastl::vector.2" }
%"class.eastl::vector.2" = type { %"struct.eastl::VectorBase.3" }
%"struct.eastl::VectorBase.3" = type { ptr, ptr, %"class.eastl::compressed_pair.4" }
%"class.eastl::compressed_pair.4" = type { %"class.eastl::compressed_pair_imp.5" }
%"class.eastl::compressed_pair_imp.5" = type { ptr }
%"class.EA::UnitTest::TestApplication" = type { %"class.EA::UnitTest::TestSuite", i32, ptr, ptr, ptr }

; Function Attrs: mustprogress nounwind uwtable
define dso_local noundef i32 @_ZN2EA8UnitTest4Test4InitEv(ptr noundef nonnull align 8 dereferenceable(80) %this) unnamed_addr #1 align 2 {
entry:
  %this.addr = alloca ptr, align 8
  store ptr %this, ptr %this.addr, align 8
  ret i32 0
}

; Function Attrs: mustprogress uwtable
define dso_local noundef i32 @_ZN2EA8UnitTest15TestApplication4InitEv(ptr noundef nonnull align 8 dereferenceable(176) %this) unnamed_addr #2 align 2 {
entry:
  %retval = alloca i32, align 4
  %this.addr = alloca ptr, align 8
  %nTestResult = alloca i32, align 4
  store ptr %this, ptr %this.addr, align 8
  %this1 = load ptr, ptr %this.addr, align 8
  %call = call noundef i32 @_ZN2EA8UnitTest4Test4InitEv(ptr noundef nonnull align 8 dereferenceable(80) %this1)
  %cmp = icmp slt i32 %call, 0
  br i1 %cmp, label %if.then, label %if.end

if.then:                                          ; preds = %entry
  store i32 1, ptr %retval, align 4
  br label %return

if.end:                                           ; preds = %entry
  %mpInitFunction = getelementptr inbounds %"class.EA::UnitTest::TestApplication", ptr %this1, i32 0, i32 3
  %0 = load ptr, ptr %mpInitFunction, align 8
  %tobool = icmp ne ptr %0, null
  br i1 %tobool, label %if.then2, label %if.end8

if.then2:                                         ; preds = %if.end
  %mpInitFunction3 = getelementptr inbounds %"class.EA::UnitTest::TestApplication", ptr %this1, i32 0, i32 3
  %1 = load ptr, ptr %mpInitFunction3, align 8
  %call4 = call noundef i32 %1()
  store i32 %call4, ptr %nTestResult, align 4
  %2 = load i32, ptr %nTestResult, align 4
  %cmp5 = icmp slt i32 %2, 0
  br i1 %cmp5, label %if.then6, label %if.end7

if.then6:                                         ; preds = %if.then2
  store i32 1, ptr %retval, align 4
  br label %return

if.end7:                                          ; preds = %if.then2
  br label %if.end8

if.end8:                                          ; preds = %if.end7, %if.end
  store i32 0, ptr %retval, align 4
  br label %return

return:                                           ; preds = %if.end8, %if.then6, %if.then
  %3 = load i32, ptr %retval, align 4
  ret i32 %3
}