; Function Attrs: mustprogress uwtable
define dso_local noundef i32 @_ZN2EA8UnitTest15TestApplication4InitEv(ptr nocapture noundef nonnull readonly align 8 dereferenceable(176) %this) unnamed_addr #0 align 2 {
entry:
  %mpInitFunction = getelementptr inbounds i8, ptr %this, i64 160
  %0 = load ptr, ptr %mpInitFunction, align 8
  %tobool.not = icmp eq ptr %0, null
  br i1 %tobool.not, label %if.end8, label %if.then2

if.then2:                                         ; preds = %entry
  %call4 = tail call noundef i32 %0()
  %cmp5 = icmp slt i32 %call4, 0
  br i1 %cmp5, label %return, label %if.end8

if.end8:                                          ; preds = %if.then2, %entry
  br label %return

return:                                           ; preds = %if.then2, %if.end8
  %retval.0 = phi i32 [ 0, %if.end8 ], [ 1, %if.then2 ]
  ret i32 %retval.0
}